; ModuleID = '9/1125.c'
source_filename = "9/1125.c"
target datalayout = "e-m:e-p270:32:32-p271:32:32-p272:64:64-i64:64-f80:128-n8:16:32:64-S128"
target triple = "x86_64-pc-linux-gnu"

@.str = private unnamed_addr constant [3 x i8] c"%d\00", align 1
@.str.1 = private unnamed_addr constant [3 x i8] c"%s\00", align 1
@.str.2 = private unnamed_addr constant [4 x i8] c"%s\0A\00", align 1

; Function Attrs: noinline nounwind uwtable
define dso_local i32 @main(i32 %0, i8** %1) #0 {
  %3 = alloca i32, align 4
  %4 = alloca i32, align 4
  %5 = alloca i8**, align 8
  %6 = alloca [100 x [100 x i8]], align 16
  %7 = alloca [100 x i32], align 16
  %8 = alloca i32, align 4
  %9 = alloca i32, align 4
  %10 = alloca i32, align 4
  %11 = alloca i32, align 4
  %12 = alloca [13 x i8], align 1
  %13 = alloca [100 x [13 x i8]], align 16
  %14 = alloca [100 x i32], align 16
  %15 = alloca [100 x [13 x i8]], align 16
  %16 = alloca [100 x i32], align 16
  %17 = alloca i32, align 4
  %18 = alloca i32, align 4
  store i32 0, i32* %3, align 4
  store i32 %0, i32* %4, align 4
  store i8** %1, i8*** %5, align 8
  %19 = call i32 (i8*, ...) @__isoc99_scanf(i8* getelementptr inbounds ([3 x i8], [3 x i8]* @.str, i64 0, i64 0), i32* %8)
  store i32 0, i32* %9, align 4
  br label %20

20:                                               ; preds = %34, %2
  %21 = load i32, i32* %9, align 4
  %22 = load i32, i32* %8, align 4
  %23 = icmp slt i32 %21, %22
  br i1 %23, label %24, label %37

24:                                               ; preds = %20
  %25 = load i32, i32* %9, align 4
  %26 = sext i32 %25 to i64
  %27 = getelementptr inbounds [100 x [100 x i8]], [100 x [100 x i8]]* %6, i64 0, i64 %26
  %28 = getelementptr inbounds [100 x i8], [100 x i8]* %27, i64 0, i64 0
  %29 = call i32 (i8*, ...) @__isoc99_scanf(i8* getelementptr inbounds ([3 x i8], [3 x i8]* @.str.1, i64 0, i64 0), i8* %28)
  %30 = load i32, i32* %9, align 4
  %31 = sext i32 %30 to i64
  %32 = getelementptr inbounds [100 x i32], [100 x i32]* %7, i64 0, i64 %31
  %33 = call i32 (i8*, ...) @__isoc99_scanf(i8* getelementptr inbounds ([3 x i8], [3 x i8]* @.str, i64 0, i64 0), i32* %32)
  br label %34

34:                                               ; preds = %24
  %35 = load i32, i32* %9, align 4
  %36 = add nsw i32 %35, 1
  store i32 %36, i32* %9, align 4
  br label %20

37:                                               ; preds = %20
  store i32 0, i32* %17, align 4
  store i32 0, i32* %18, align 4
  store i32 0, i32* %9, align 4
  br label %38

38:                                               ; preds = %93, %37
  %39 = load i32, i32* %9, align 4
  %40 = load i32, i32* %8, align 4
  %41 = icmp slt i32 %39, %40
  br i1 %41, label %42, label %96

42:                                               ; preds = %38
  %43 = load i32, i32* %9, align 4
  %44 = sext i32 %43 to i64
  %45 = getelementptr inbounds [100 x i32], [100 x i32]* %7, i64 0, i64 %44
  %46 = load i32, i32* %45, align 4
  %47 = icmp sge i32 %46, 60
  br i1 %47, label %48, label %67

48:                                               ; preds = %42
  %49 = load i32, i32* %9, align 4
  %50 = sext i32 %49 to i64
  %51 = getelementptr inbounds [100 x i32], [100 x i32]* %7, i64 0, i64 %50
  %52 = load i32, i32* %51, align 4
  %53 = load i32, i32* %17, align 4
  %54 = sext i32 %53 to i64
  %55 = getelementptr inbounds [100 x i32], [100 x i32]* %14, i64 0, i64 %54
  store i32 %52, i32* %55, align 4
  %56 = load i32, i32* %17, align 4
  %57 = sext i32 %56 to i64
  %58 = getelementptr inbounds [100 x [13 x i8]], [100 x [13 x i8]]* %13, i64 0, i64 %57
  %59 = getelementptr inbounds [13 x i8], [13 x i8]* %58, i64 0, i64 0
  %60 = load i32, i32* %9, align 4
  %61 = sext i32 %60 to i64
  %62 = getelementptr inbounds [100 x [100 x i8]], [100 x [100 x i8]]* %6, i64 0, i64 %61
  %63 = getelementptr inbounds [100 x i8], [100 x i8]* %62, i64 0, i64 0
  %64 = call i8* @strcpy(i8* %59, i8* %63) #3
  %65 = load i32, i32* %17, align 4
  %66 = add nsw i32 %65, 1
  store i32 %66, i32* %17, align 4
  br label %67

67:                                               ; preds = %48, %42
  %68 = load i32, i32* %9, align 4
  %69 = sext i32 %68 to i64
  %70 = getelementptr inbounds [100 x i32], [100 x i32]* %7, i64 0, i64 %69
  %71 = load i32, i32* %70, align 4
  %72 = icmp slt i32 %71, 60
  br i1 %72, label %73, label %92

73:                                               ; preds = %67
  %74 = load i32, i32* %9, align 4
  %75 = sext i32 %74 to i64
  %76 = getelementptr inbounds [100 x i32], [100 x i32]* %7, i64 0, i64 %75
  %77 = load i32, i32* %76, align 4
  %78 = load i32, i32* %18, align 4
  %79 = sext i32 %78 to i64
  %80 = getelementptr inbounds [100 x i32], [100 x i32]* %16, i64 0, i64 %79
  store i32 %77, i32* %80, align 4
  %81 = load i32, i32* %18, align 4
  %82 = sext i32 %81 to i64
  %83 = getelementptr inbounds [100 x [13 x i8]], [100 x [13 x i8]]* %15, i64 0, i64 %82
  %84 = getelementptr inbounds [13 x i8], [13 x i8]* %83, i64 0, i64 0
  %85 = load i32, i32* %9, align 4
  %86 = sext i32 %85 to i64
  %87 = getelementptr inbounds [100 x [100 x i8]], [100 x [100 x i8]]* %6, i64 0, i64 %86
  %88 = getelementptr inbounds [100 x i8], [100 x i8]* %87, i64 0, i64 0
  %89 = call i8* @strcpy(i8* %84, i8* %88) #3
  %90 = load i32, i32* %18, align 4
  %91 = add nsw i32 %90, 1
  store i32 %91, i32* %18, align 4
  br label %92

92:                                               ; preds = %73, %67
  br label %93

93:                                               ; preds = %92
  %94 = load i32, i32* %9, align 4
  %95 = add nsw i32 %94, 1
  store i32 %95, i32* %9, align 4
  br label %38

96:                                               ; preds = %38
  store i32 1, i32* %10, align 4
  br label %97

97:                                               ; preds = %165, %96
  %98 = load i32, i32* %10, align 4
  %99 = load i32, i32* %17, align 4
  %100 = icmp slt i32 %98, %99
  br i1 %100, label %101, label %168

101:                                              ; preds = %97
  store i32 0, i32* %9, align 4
  br label %102

102:                                              ; preds = %161, %101
  %103 = load i32, i32* %9, align 4
  %104 = load i32, i32* %17, align 4
  %105 = load i32, i32* %10, align 4
  %106 = sub nsw i32 %104, %105
  %107 = icmp slt i32 %103, %106
  br i1 %107, label %108, label %164

108:                                              ; preds = %102
  %109 = load i32, i32* %9, align 4
  %110 = sext i32 %109 to i64
  %111 = getelementptr inbounds [100 x i32], [100 x i32]* %14, i64 0, i64 %110
  %112 = load i32, i32* %111, align 4
  %113 = load i32, i32* %9, align 4
  %114 = add nsw i32 %113, 1
  %115 = sext i32 %114 to i64
  %116 = getelementptr inbounds [100 x i32], [100 x i32]* %14, i64 0, i64 %115
  %117 = load i32, i32* %116, align 4
  %118 = icmp slt i32 %112, %117
  br i1 %118, label %119, label %160

119:                                              ; preds = %108
  %120 = load i32, i32* %9, align 4
  %121 = add nsw i32 %120, 1
  %122 = sext i32 %121 to i64
  %123 = getelementptr inbounds [100 x i32], [100 x i32]* %14, i64 0, i64 %122
  %124 = load i32, i32* %123, align 4
  store i32 %124, i32* %11, align 4
  %125 = load i32, i32* %9, align 4
  %126 = sext i32 %125 to i64
  %127 = getelementptr inbounds [100 x i32], [100 x i32]* %14, i64 0, i64 %126
  %128 = load i32, i32* %127, align 4
  %129 = load i32, i32* %9, align 4
  %130 = add nsw i32 %129, 1
  %131 = sext i32 %130 to i64
  %132 = getelementptr inbounds [100 x i32], [100 x i32]* %14, i64 0, i64 %131
  store i32 %128, i32* %132, align 4
  %133 = load i32, i32* %11, align 4
  %134 = load i32, i32* %9, align 4
  %135 = sext i32 %134 to i64
  %136 = getelementptr inbounds [100 x i32], [100 x i32]* %14, i64 0, i64 %135
  store i32 %133, i32* %136, align 4
  %137 = getelementptr inbounds [13 x i8], [13 x i8]* %12, i64 0, i64 0
  %138 = load i32, i32* %9, align 4
  %139 = add nsw i32 %138, 1
  %140 = sext i32 %139 to i64
  %141 = getelementptr inbounds [100 x [13 x i8]], [100 x [13 x i8]]* %13, i64 0, i64 %140
  %142 = getelementptr inbounds [13 x i8], [13 x i8]* %141, i64 0, i64 0
  %143 = call i8* @strcpy(i8* %137, i8* %142) #3
  %144 = load i32, i32* %9, align 4
  %145 = add nsw i32 %144, 1
  %146 = sext i32 %145 to i64
  %147 = getelementptr inbounds [100 x [13 x i8]], [100 x [13 x i8]]* %13, i64 0, i64 %146
  %148 = getelementptr inbounds [13 x i8], [13 x i8]* %147, i64 0, i64 0
  %149 = load i32, i32* %9, align 4
  %150 = sext i32 %149 to i64
  %151 = getelementptr inbounds [100 x [13 x i8]], [100 x [13 x i8]]* %13, i64 0, i64 %150
  %152 = getelementptr inbounds [13 x i8], [13 x i8]* %151, i64 0, i64 0
  %153 = call i8* @strcpy(i8* %148, i8* %152) #3
  %154 = load i32, i32* %9, align 4
  %155 = sext i32 %154 to i64
  %156 = getelementptr inbounds [100 x [13 x i8]], [100 x [13 x i8]]* %13, i64 0, i64 %155
  %157 = getelementptr inbounds [13 x i8], [13 x i8]* %156, i64 0, i64 0
  %158 = getelementptr inbounds [13 x i8], [13 x i8]* %12, i64 0, i64 0
  %159 = call i8* @strcpy(i8* %157, i8* %158) #3
  br label %160

160:                                              ; preds = %119, %108
  br label %161

161:                                              ; preds = %160
  %162 = load i32, i32* %9, align 4
  %163 = add nsw i32 %162, 1
  store i32 %163, i32* %9, align 4
  br label %102

164:                                              ; preds = %102
  br label %165

165:                                              ; preds = %164
  %166 = load i32, i32* %10, align 4
  %167 = add nsw i32 %166, 1
  store i32 %167, i32* %10, align 4
  br label %97

168:                                              ; preds = %97
  store i32 0, i32* %9, align 4
  br label %169

169:                                              ; preds = %179, %168
  %170 = load i32, i32* %9, align 4
  %171 = load i32, i32* %17, align 4
  %172 = icmp slt i32 %170, %171
  br i1 %172, label %173, label %182

173:                                              ; preds = %169
  %174 = load i32, i32* %9, align 4
  %175 = sext i32 %174 to i64
  %176 = getelementptr inbounds [100 x [13 x i8]], [100 x [13 x i8]]* %13, i64 0, i64 %175
  %177 = getelementptr inbounds [13 x i8], [13 x i8]* %176, i64 0, i64 0
  %178 = call i32 (i8*, ...) @printf(i8* getelementptr inbounds ([4 x i8], [4 x i8]* @.str.2, i64 0, i64 0), i8* %177)
  br label %179

179:                                              ; preds = %173
  %180 = load i32, i32* %9, align 4
  %181 = add nsw i32 %180, 1
  store i32 %181, i32* %9, align 4
  br label %169

182:                                              ; preds = %169
  store i32 0, i32* %9, align 4
  br label %183

183:                                              ; preds = %193, %182
  %184 = load i32, i32* %9, align 4
  %185 = load i32, i32* %18, align 4
  %186 = icmp slt i32 %184, %185
  br i1 %186, label %187, label %196

187:                                              ; preds = %183
  %188 = load i32, i32* %9, align 4
  %189 = sext i32 %188 to i64
  %190 = getelementptr inbounds [100 x [13 x i8]], [100 x [13 x i8]]* %15, i64 0, i64 %189
  %191 = getelementptr inbounds [13 x i8], [13 x i8]* %190, i64 0, i64 0
  %192 = call i32 (i8*, ...) @printf(i8* getelementptr inbounds ([4 x i8], [4 x i8]* @.str.2, i64 0, i64 0), i8* %191)
  br label %193

193:                                              ; preds = %187
  %194 = load i32, i32* %9, align 4
  %195 = add nsw i32 %194, 1
  store i32 %195, i32* %9, align 4
  br label %183

196:                                              ; preds = %183
  ret i32 0
}

declare dso_local i32 @__isoc99_scanf(i8*, ...) #1

; Function Attrs: nounwind
declare dso_local i8* @strcpy(i8*, i8*) #2

declare dso_local i32 @printf(i8*, ...) #1


!llvm.module.flags = !{!0}
!llvm.ident = !{!1}

!0 = !{i32 1, !"wchar_size", i32 4}
!1 = !{!"clang version 10.0.0-4ubuntu1 "}
